target datalayout = "e-m:e-p270:32:32-p271:32:32-p272:64:64-i64:64-i128:128-f80:128-n8:16:32:64-S128"
target triple = "x86_64-pc-linux-gnu"

%"class.pxrInternal_v0_24__pxrReserved__::HdSingleInputFilteringSceneIndexBase" = type { %"class.pxrInternal_v0_24__pxrReserved__::HdFilteringSceneIndexBase", %"class.pxrInternal_v0_24__pxrReserved__::TfRefPtr", %"class.pxrInternal_v0_24__pxrReserved__::HdSingleInputFilteringSceneIndexBase::_Observer" }
%"class.pxrInternal_v0_24__pxrReserved__::HdFilteringSceneIndexBase" = type { %"class.pxrInternal_v0_24__pxrReserved__::HdSceneIndexBase" }
%"class.pxrInternal_v0_24__pxrReserved__::HdSceneIndexBase" = type { %"class.pxrInternal_v0_24__pxrReserved__::TfRefBase.base", %"class.pxrInternal_v0_24__pxrReserved__::TfWeakBase", %"class.std::vector", i32, i8, %"class.std::__cxx11::basic_string", %"class.pxrInternal_v0_24__pxrReserved__::TfDenseHashSet" }
%"class.pxrInternal_v0_24__pxrReserved__::TfRefBase.base" = type <{ ptr, %"struct.std::atomic" }>
%"struct.std::atomic" = type { %"struct.std::__atomic_base" }
%"struct.std::__atomic_base" = type { i32 }
%"class.pxrInternal_v0_24__pxrReserved__::TfWeakBase" = type { %"struct.std::atomic.0" }
%"struct.std::atomic.0" = type { %"struct.std::__atomic_base.1" }
%"struct.std::__atomic_base.1" = type { ptr }
%"class.std::vector" = type { %"struct.std::_Vector_base" }
%"struct.std::_Vector_base" = type { %"struct.std::_Vector_base<pxrInternal_v0_24__pxrReserved__::TfWeakPtr<pxrInternal_v0_24__pxrReserved__::HdSceneIndexObserver>, std::allocator<pxrInternal_v0_24__pxrReserved__::TfWeakPtr<pxrInternal_v0_24__pxrReserved__::HdSceneIndexObserver>>>::_Vector_impl" }
%"struct.std::_Vector_base<pxrInternal_v0_24__pxrReserved__::TfWeakPtr<pxrInternal_v0_24__pxrReserved__::HdSceneIndexObserver>, std::allocator<pxrInternal_v0_24__pxrReserved__::TfWeakPtr<pxrInternal_v0_24__pxrReserved__::HdSceneIndexObserver>>>::_Vector_impl" = type { %"struct.std::_Vector_base<pxrInternal_v0_24__pxrReserved__::TfWeakPtr<pxrInternal_v0_24__pxrReserved__::HdSceneIndexObserver>, std::allocator<pxrInternal_v0_24__pxrReserved__::TfWeakPtr<pxrInternal_v0_24__pxrReserved__::HdSceneIndexObserver>>>::_Vector_impl_data" }
%"struct.std::_Vector_base<pxrInternal_v0_24__pxrReserved__::TfWeakPtr<pxrInternal_v0_24__pxrReserved__::HdSceneIndexObserver>, std::allocator<pxrInternal_v0_24__pxrReserved__::TfWeakPtr<pxrInternal_v0_24__pxrReserved__::HdSceneIndexObserver>>>::_Vector_impl_data" = type { ptr, ptr, ptr }
%"class.std::__cxx11::basic_string" = type { %"struct.std::__cxx11::basic_string<char>::_Alloc_hider", i64, %union.anon }
%"struct.std::__cxx11::basic_string<char>::_Alloc_hider" = type { ptr }
%union.anon = type { i64, [8 x i8] }
%"class.pxrInternal_v0_24__pxrReserved__::TfDenseHashSet" = type { %"struct.pxrInternal_v0_24__pxrReserved__::TfDenseHashSet<pxrInternal_v0_24__pxrReserved__::TfToken, pxrInternal_v0_24__pxrReserved__::TfHash, std::equal_to<pxrInternal_v0_24__pxrReserved__::TfToken>, 8>::_CompressedStorage", %"class.std::unique_ptr" }
%"struct.pxrInternal_v0_24__pxrReserved__::TfDenseHashSet<pxrInternal_v0_24__pxrReserved__::TfToken, pxrInternal_v0_24__pxrReserved__::TfHash, std::equal_to<pxrInternal_v0_24__pxrReserved__::TfToken>, 8>::_CompressedStorage" = type { %"class.std::vector.5" }
%"class.std::unique_ptr" = type { %"struct.std::__uniq_ptr_data" }
%"struct.std::__uniq_ptr_data" = type { %"class.std::__uniq_ptr_impl" }
%"class.std::__uniq_ptr_impl" = type { %"class.std::tuple" }
%"class.std::tuple" = type { %"struct.std::_Tuple_impl" }
%"struct.std::_Tuple_impl" = type { %"struct.std::_Head_base.11" }
%"struct.std::_Head_base.11" = type { ptr }
%"class.pxrInternal_v0_24__pxrReserved__::TfRefPtr" = type { ptr }
%"class.pxrInternal_v0_24__pxrReserved__::HdSingleInputFilteringSceneIndexBase::_Observer" = type { %"class.pxrInternal_v0_24__pxrReserved__::HdSceneIndexObserver", ptr }
%"class.pxrInternal_v0_24__pxrReserved__::HdSceneIndexObserver" = type { ptr, %"class.pxrInternal_v0_24__pxrReserved__::TfWeakBase" }
%"class.std::vector.5" = type { %"struct.std::_Vector_base.6" }
%"struct.std::_Vector_base.6" = type { %"struct.std::_Vector_base<pxrInternal_v0_24__pxrReserved__::TfToken, std::allocator<pxrInternal_v0_24__pxrReserved__::TfToken>>::_Vector_impl" }
%"struct.std::_Vector_base<pxrInternal_v0_24__pxrReserved__::TfToken, std::allocator<pxrInternal_v0_24__pxrReserved__::TfToken>>::_Vector_impl" = type { %"struct.std::_Vector_base<pxrInternal_v0_24__pxrReserved__::TfToken, std::allocator<pxrInternal_v0_24__pxrReserved__::TfToken>>::_Vector_impl_data" }
%"struct.std::_Vector_base<pxrInternal_v0_24__pxrReserved__::TfToken, std::allocator<pxrInternal_v0_24__pxrReserved__::TfToken>>::_Vector_impl_data" = type { ptr, ptr, ptr }
%"class.pxrInternal_v0_24__pxrReserved__::TfCallContext" = type <{ ptr, ptr, i64, ptr, i8, [7 x i8] }>
%"class.std::vector.15" = type { %"struct.std::_Vector_base.16" }
%"struct.std::_Vector_base.16" = type { %"struct.std::_Vector_base<pxrInternal_v0_24__pxrReserved__::SdfPath, std::allocator<pxrInternal_v0_24__pxrReserved__::SdfPath>>::_Vector_impl" }
%"struct.std::_Vector_base<pxrInternal_v0_24__pxrReserved__::SdfPath, std::allocator<pxrInternal_v0_24__pxrReserved__::SdfPath>>::_Vector_impl" = type { %"struct.std::_Vector_base<pxrInternal_v0_24__pxrReserved__::SdfPath, std::allocator<pxrInternal_v0_24__pxrReserved__::SdfPath>>::_Vector_impl_data" }
%"struct.std::_Vector_base<pxrInternal_v0_24__pxrReserved__::SdfPath, std::allocator<pxrInternal_v0_24__pxrReserved__::SdfPath>>::_Vector_impl_data" = type { ptr, ptr, ptr }
%"class.std::type_info" = type { ptr, ptr }

@.str = private unnamed_addr constant [114 x i8] c"generated/home/dtcxzyw/WorkSpace/Projects/compilers/llvm-opt-benchmark/bench/openusd/OpenUSD/pxr/base/tf/refPtr.h\00", align 1
@__func__._ZNK32pxrInternal_v0_24__pxrReserved__8TfRefPtrINS_16HdSceneIndexBaseEEptEv = private unnamed_addr constant [11 x i8] c"operator->\00", align 1
@_ZTIN32pxrInternal_v0_24__pxrReserved__8TfRefPtrINS_16HdSceneIndexBaseEEE = linkonce_odr constant { ptr, ptr } { ptr getelementptr inbounds (ptr, ptr @_ZTVN10__cxxabiv117__class_type_infoE, i64 2), ptr @_ZTSN32pxrInternal_v0_24__pxrReserved__8TfRefPtrINS_16HdSceneIndexBaseEEE }, comdat, align 8

; Function Attrs: mustprogress nounwind uwtable
define linkonce_odr noundef ptr @_ZNKSt9type_info4nameEv(ptr noundef nonnull align 8 dereferenceable(16) %0) #2 comdat align 2 {
  %2 = alloca ptr, align 8
  store ptr %0, ptr %2, align 8
  %3 = load ptr, ptr %2, align 8
  %4 = getelementptr inbounds nuw %"class.std::type_info", ptr %3, i32 0, i32 1
  %5 = load ptr, ptr %4, align 8
  %6 = getelementptr inbounds i8, ptr %5, i64 0
  %7 = load i8, ptr %6, align 1
  %8 = sext i8 %7 to i32
  %9 = icmp eq i32 %8, 42
  br i1 %9, label %10, label %14

10:                                               ; preds = %1
  %11 = getelementptr inbounds nuw %"class.std::type_info", ptr %3, i32 0, i32 1
  %12 = load ptr, ptr %11, align 8
  %13 = getelementptr inbounds i8, ptr %12, i64 1
  br label %17

14:                                               ; preds = %1
  %15 = getelementptr inbounds nuw %"class.std::type_info", ptr %3, i32 0, i32 1
  %16 = load ptr, ptr %15, align 8
  br label %17

17:                                               ; preds = %14, %10
  %18 = phi ptr [ %13, %10 ], [ %16, %14 ]
  ret ptr %18
}

; Function Attrs: mustprogress nounwind uwtable
define linkonce_odr void @_ZN32pxrInternal_v0_24__pxrReserved__13TfCallContextC2EPKcS2_mS2_(ptr noundef nonnull align 8 dereferenceable(33) %0, ptr noundef %1, ptr noundef %2, i64 noundef %3, ptr noundef %4) unnamed_addr #2 comdat align 2 {
  %6 = alloca ptr, align 8
  %7 = alloca ptr, align 8
  %8 = alloca ptr, align 8
  %9 = alloca i64, align 8
  %10 = alloca ptr, align 8
  store ptr %0, ptr %6, align 8
  store ptr %1, ptr %7, align 8
  store ptr %2, ptr %8, align 8
  store i64 %3, ptr %9, align 8
  store ptr %4, ptr %10, align 8
  %11 = load ptr, ptr %6, align 8
  %12 = getelementptr inbounds nuw %"class.pxrInternal_v0_24__pxrReserved__::TfCallContext", ptr %11, i32 0, i32 0
  %13 = load ptr, ptr %7, align 8
  store ptr %13, ptr %12, align 8
  %14 = getelementptr inbounds nuw %"class.pxrInternal_v0_24__pxrReserved__::TfCallContext", ptr %11, i32 0, i32 1
  %15 = load ptr, ptr %8, align 8
  store ptr %15, ptr %14, align 8
  %16 = getelementptr inbounds nuw %"class.pxrInternal_v0_24__pxrReserved__::TfCallContext", ptr %11, i32 0, i32 2
  %17 = load i64, ptr %9, align 8
  store i64 %17, ptr %16, align 8
  %18 = getelementptr inbounds nuw %"class.pxrInternal_v0_24__pxrReserved__::TfCallContext", ptr %11, i32 0, i32 3
  %19 = load ptr, ptr %10, align 8
  store ptr %19, ptr %18, align 8
  %20 = getelementptr inbounds nuw %"class.pxrInternal_v0_24__pxrReserved__::TfCallContext", ptr %11, i32 0, i32 4
  store i8 0, ptr %20, align 8
  ret void
}

; Function Attrs: mustprogress uwtable
define linkonce_odr noundef ptr @_ZNK32pxrInternal_v0_24__pxrReserved__8TfRefPtrINS_16HdSceneIndexBaseEEptEv(ptr noundef nonnull align 8 dereferenceable(8) %0) #0 comdat align 2 {
  %2 = alloca ptr, align 8
  %3 = alloca %"class.pxrInternal_v0_24__pxrReserved__::TfCallContext", align 8
  store ptr %0, ptr %2, align 8
  %4 = load ptr, ptr %2, align 8
  %5 = getelementptr inbounds nuw %"class.pxrInternal_v0_24__pxrReserved__::TfRefPtr", ptr %4, i32 0, i32 0
  %6 = load ptr, ptr %5, align 8
  %7 = icmp ne ptr %6, null
  br i1 %7, label %8, label %11

8:                                                ; preds = %1
  %9 = getelementptr inbounds nuw %"class.pxrInternal_v0_24__pxrReserved__::TfRefPtr", ptr %4, i32 0, i32 0
  %10 = load ptr, ptr %9, align 8
  ret ptr %10

11:                                               ; preds = %1
  call void @_ZN32pxrInternal_v0_24__pxrReserved__13TfCallContextC2EPKcS2_mS2_(ptr noundef nonnull align 8 dereferenceable(33) %3, ptr noundef @.str, ptr noundef @__func__._ZNK32pxrInternal_v0_24__pxrReserved__8TfRefPtrINS_16HdSceneIndexBaseEEptEv, i64 noundef 936, ptr noundef @__PRETTY_FUNCTION__._ZNK32pxrInternal_v0_24__pxrReserved__8TfRefPtrINS_16HdSceneIndexBaseEEptEv)
  %12 = call noundef ptr @_ZNKSt9type_info4nameEv(ptr noundef nonnull align 8 dereferenceable(16) @_ZTIN32pxrInternal_v0_24__pxrReserved__8TfRefPtrINS_16HdSceneIndexBaseEEE) #12
  call void @_ZN32pxrInternal_v0_24__pxrReserved__40Tf_PostNullSmartPtrDereferenceFatalErrorERKNS_13TfCallContextEPKc(ptr noundef nonnull align 8 dereferenceable(33) %3, ptr noundef %12) #14
  unreachable
}

; Function Attrs: mustprogress nounwind uwtable
define linkonce_odr noundef nonnull align 8 dereferenceable(8) ptr @_ZNK32pxrInternal_v0_24__pxrReserved__36HdSingleInputFilteringSceneIndexBase19_GetInputSceneIndexEv(ptr noundef nonnull align 8 dereferenceable(152) %0) #2 comdat align 2 {
  %2 = alloca ptr, align 8
  store ptr %0, ptr %2, align 8
  %3 = load ptr, ptr %2, align 8
  %4 = getelementptr inbounds nuw %"class.pxrInternal_v0_24__pxrReserved__::HdSingleInputFilteringSceneIndexBase", ptr %3, i32 0, i32 1
  ret ptr %4
}

; Function Attrs: mustprogress uwtable
define void @_ZNK32pxrInternal_v0_24__pxrReserved__43HdGpGenerativeProceduralFilteringSceneIndex17GetChildPrimPathsERKNS_7SdfPathE(ptr dead_on_unwind noalias writable sret(%"class.std::vector.15") align 8 %0, ptr noundef nonnull align 8 dereferenceable(184) %1, ptr noundef nonnull align 4 dereferenceable(8) %2) unnamed_addr #0 align 2 {
  %4 = alloca ptr, align 8
  %5 = alloca ptr, align 8
  %6 = alloca ptr, align 8
  store ptr %0, ptr %4, align 8
  store ptr %1, ptr %5, align 8
  store ptr %2, ptr %6, align 8
  %7 = load ptr, ptr %5, align 8
  %8 = call noundef nonnull align 8 dereferenceable(8) ptr @_ZNK32pxrInternal_v0_24__pxrReserved__36HdSingleInputFilteringSceneIndexBase19_GetInputSceneIndexEv(ptr noundef nonnull align 8 dereferenceable(152) %7)
  %9 = call noundef ptr @_ZNK32pxrInternal_v0_24__pxrReserved__8TfRefPtrINS_16HdSceneIndexBaseEEptEv(ptr noundef nonnull align 8 dereferenceable(8) %8)
  %10 = load ptr, ptr %6, align 8
  %11 = load ptr, ptr %9, align 8
  %12 = getelementptr inbounds ptr, ptr %11, i64 3
  %13 = load ptr, ptr %12, align 8
  call void %13(ptr dead_on_unwind writable sret(%"class.std::vector.15") align 8 %0, ptr noundef nonnull align 8 dereferenceable(120) %9, ptr noundef nonnull align 4 dereferenceable(8) %10)
  ret void
}